target datalayout = "e-m:e-p270:32:32-p271:32:32-p272:64:64-i64:64-i128:128-f80:128-n8:16:32:64-S128"
target triple = "x86_64-pc-linux-gnu"

%"class.ncnn::DeformableConv2D_x86_fma" = type { %"class.ncnn::DeformableConv2D", ptr, %"class.ncnn::Mat", ptr }
%"class.ncnn::DeformableConv2D" = type { %"class.ncnn::Layer", i32, i32, i32, i32, i32, i32, i32, i32, i32, i32, i32, i32, i32, i32, %"class.ncnn::Mat", %"class.ncnn::Mat", %"class.ncnn::Mat" }
%"class.ncnn::Layer" = type { ptr, i8, i8, i8, i8, i8, i8, i8, i8, i8, i8, i8, i8, i8, i8, i8, i8, i8, i8, i8, i8, i32, ptr, i32, %"class.std::__cxx11::basic_string", %"class.std::__cxx11::basic_string", %"class.std::vector", %"class.std::vector", %"class.std::vector.3", %"class.std::vector.3" }
%"class.std::__cxx11::basic_string" = type { %"struct.std::__cxx11::basic_string<char>::_Alloc_hider", i64, %union.anon }
%"struct.std::__cxx11::basic_string<char>::_Alloc_hider" = type { ptr }
%union.anon = type { i64, [8 x i8] }
%"class.std::vector" = type { %"struct.std::_Vector_base" }
%"struct.std::_Vector_base" = type { %"struct.std::_Vector_base<int, std::allocator<int>>::_Vector_impl" }
%"struct.std::_Vector_base<int, std::allocator<int>>::_Vector_impl" = type { %"struct.std::_Vector_base<int, std::allocator<int>>::_Vector_impl_data" }
%"struct.std::_Vector_base<int, std::allocator<int>>::_Vector_impl_data" = type { ptr, ptr, ptr }
%"class.std::vector.3" = type { %"struct.std::_Vector_base.4" }
%"struct.std::_Vector_base.4" = type { %"struct.std::_Vector_base<ncnn::Mat, std::allocator<ncnn::Mat>>::_Vector_impl" }
%"struct.std::_Vector_base<ncnn::Mat, std::allocator<ncnn::Mat>>::_Vector_impl" = type { %"struct.std::_Vector_base<ncnn::Mat, std::allocator<ncnn::Mat>>::_Vector_impl_data" }
%"struct.std::_Vector_base<ncnn::Mat, std::allocator<ncnn::Mat>>::_Vector_impl_data" = type { ptr, ptr, ptr }
%"class.ncnn::Mat" = type { ptr, ptr, i64, i32, ptr, i32, i32, i32, i32, i32, i64 }

@_ZTVN4ncnn16DeformableConv2DE = external unnamed_addr constant { [12 x ptr] }, align 8

; Function Attrs: noreturn nounwind uwtable
define linkonce_odr hidden void @__clang_call_terminate(ptr noundef %0) #8 comdat {
  %2 = call ptr @__cxa_begin_catch(ptr %0) #13
  call void @_ZSt9terminatev() #14
  unreachable
}

; Function Attrs: mustprogress nounwind uwtable
define linkonce_odr hidden void @_ZN4ncnn16DeformableConv2DD2Ev(ptr noundef nonnull align 8 dereferenceable(480) %0) unnamed_addr #2 comdat align 2 personality ptr @__gxx_personality_v0 {
  %2 = alloca ptr, align 8
  %3 = alloca ptr, align 8
  %4 = alloca ptr, align 8
  %5 = alloca ptr, align 8
  %6 = alloca i32, align 4
  %7 = alloca i32, align 4
  %8 = alloca ptr, align 8
  %9 = alloca i32, align 4
  %10 = alloca i32, align 4
  %11 = alloca ptr, align 8
  %12 = alloca i32, align 4
  %13 = alloca i32, align 4
  %14 = alloca ptr, align 8
  %15 = alloca ptr, align 8
  %16 = alloca ptr, align 8
  %17 = alloca ptr, align 8
  store ptr %0, ptr %17, align 8
  %18 = load ptr, ptr %17, align 8
  store ptr getelementptr inbounds inrange(-16, 80) ({ [12 x ptr] }, ptr @_ZTVN4ncnn16DeformableConv2DE, i32 0, i32 0, i32 2), ptr %18, align 8
  %19 = getelementptr inbounds nuw %"class.ncnn::DeformableConv2D", ptr %18, i32 0, i32 17
  store ptr %19, ptr %16, align 8
  %20 = load ptr, ptr %16, align 8
  store ptr %20, ptr %5, align 8
  %21 = load ptr, ptr %5, align 8
  %22 = getelementptr inbounds nuw %"class.ncnn::Mat", ptr %21, i32 0, i32 1
  %23 = load ptr, ptr %22, align 8
  %24 = icmp ne ptr %23, null
  br i1 %24, label %25, label %52

25:                                               ; preds = %1
  %26 = getelementptr inbounds nuw %"class.ncnn::Mat", ptr %21, i32 0, i32 1
  %27 = load ptr, ptr %26, align 8
  store i32 -1, ptr %6, align 4
  %28 = load i32, ptr %6, align 4
  %29 = atomicrmw add ptr %27, i32 %28 acq_rel, align 4
  store i32 %29, ptr %7, align 4
  %30 = load i32, ptr %7, align 4
  %31 = icmp eq i32 %30, 1
  br i1 %31, label %32, label %52

32:                                               ; preds = %25
  %33 = getelementptr inbounds nuw %"class.ncnn::Mat", ptr %21, i32 0, i32 4
  %34 = load ptr, ptr %33, align 8
  %35 = icmp ne ptr %34, null
  br i1 %35, label %36, label %44

36:                                               ; preds = %32
  %37 = getelementptr inbounds nuw %"class.ncnn::Mat", ptr %21, i32 0, i32 4
  %38 = load ptr, ptr %37, align 8
  %39 = load ptr, ptr %21, align 8
  %40 = load ptr, ptr %38, align 8
  %41 = getelementptr inbounds ptr, ptr %40, i64 3
  %42 = load ptr, ptr %41, align 8
  invoke void %42(ptr noundef nonnull align 8 dereferenceable(8) %38, ptr noundef %39)
          to label %43 unwind label %62

43:                                               ; preds = %36
  br label %51

44:                                               ; preds = %32
  %45 = load ptr, ptr %21, align 8
  store ptr %45, ptr %4, align 8
  %46 = load ptr, ptr %4, align 8
  %47 = icmp ne ptr %46, null
  br i1 %47, label %48, label %50

48:                                               ; preds = %44
  %49 = load ptr, ptr %4, align 8
  call void @free(ptr noundef %49) #13
  br label %50

50:                                               ; preds = %48, %44
  br label %51

51:                                               ; preds = %50, %43
  br label %52

52:                                               ; preds = %51, %25, %1
  store ptr null, ptr %21, align 8
  %53 = getelementptr inbounds nuw %"class.ncnn::Mat", ptr %21, i32 0, i32 2
  store i64 0, ptr %53, align 8
  %54 = getelementptr inbounds nuw %"class.ncnn::Mat", ptr %21, i32 0, i32 3
  store i32 0, ptr %54, align 8
  %55 = getelementptr inbounds nuw %"class.ncnn::Mat", ptr %21, i32 0, i32 5
  store i32 0, ptr %55, align 8
  %56 = getelementptr inbounds nuw %"class.ncnn::Mat", ptr %21, i32 0, i32 6
  store i32 0, ptr %56, align 4
  %57 = getelementptr inbounds nuw %"class.ncnn::Mat", ptr %21, i32 0, i32 7
  store i32 0, ptr %57, align 8
  %58 = getelementptr inbounds nuw %"class.ncnn::Mat", ptr %21, i32 0, i32 8
  store i32 0, ptr %58, align 4
  %59 = getelementptr inbounds nuw %"class.ncnn::Mat", ptr %21, i32 0, i32 9
  store i32 0, ptr %59, align 8
  %60 = getelementptr inbounds nuw %"class.ncnn::Mat", ptr %21, i32 0, i32 10
  store i64 0, ptr %60, align 8
  %61 = getelementptr inbounds nuw %"class.ncnn::Mat", ptr %21, i32 0, i32 1
  store ptr null, ptr %61, align 8
  br label %65

62:                                               ; preds = %36
  %63 = landingpad { ptr, i32 }
          catch ptr null
  %64 = extractvalue { ptr, i32 } %63, 0
  call void @__clang_call_terminate(ptr %64) #14
  unreachable

65:                                               ; preds = %52
  %66 = getelementptr inbounds nuw %"class.ncnn::DeformableConv2D", ptr %18, i32 0, i32 16
  store ptr %66, ptr %15, align 8
  %67 = load ptr, ptr %15, align 8
  store ptr %67, ptr %8, align 8
  %68 = load ptr, ptr %8, align 8
  %69 = getelementptr inbounds nuw %"class.ncnn::Mat", ptr %68, i32 0, i32 1
  %70 = load ptr, ptr %69, align 8
  %71 = icmp ne ptr %70, null
  br i1 %71, label %72, label %99

72:                                               ; preds = %65
  %73 = getelementptr inbounds nuw %"class.ncnn::Mat", ptr %68, i32 0, i32 1
  %74 = load ptr, ptr %73, align 8
  store i32 -1, ptr %9, align 4
  %75 = load i32, ptr %9, align 4
  %76 = atomicrmw add ptr %74, i32 %75 acq_rel, align 4
  store i32 %76, ptr %10, align 4
  %77 = load i32, ptr %10, align 4
  %78 = icmp eq i32 %77, 1
  br i1 %78, label %79, label %99

79:                                               ; preds = %72
  %80 = getelementptr inbounds nuw %"class.ncnn::Mat", ptr %68, i32 0, i32 4
  %81 = load ptr, ptr %80, align 8
  %82 = icmp ne ptr %81, null
  br i1 %82, label %83, label %91

83:                                               ; preds = %79
  %84 = getelementptr inbounds nuw %"class.ncnn::Mat", ptr %68, i32 0, i32 4
  %85 = load ptr, ptr %84, align 8
  %86 = load ptr, ptr %68, align 8
  %87 = load ptr, ptr %85, align 8
  %88 = getelementptr inbounds ptr, ptr %87, i64 3
  %89 = load ptr, ptr %88, align 8
  invoke void %89(ptr noundef nonnull align 8 dereferenceable(8) %85, ptr noundef %86)
          to label %90 unwind label %109

90:                                               ; preds = %83
  br label %98

91:                                               ; preds = %79
  %92 = load ptr, ptr %68, align 8
  store ptr %92, ptr %3, align 8
  %93 = load ptr, ptr %3, align 8
  %94 = icmp ne ptr %93, null
  br i1 %94, label %95, label %97

95:                                               ; preds = %91
  %96 = load ptr, ptr %3, align 8
  call void @free(ptr noundef %96) #13
  br label %97

97:                                               ; preds = %95, %91
  br label %98

98:                                               ; preds = %97, %90
  br label %99

99:                                               ; preds = %98, %72, %65
  store ptr null, ptr %68, align 8
  %100 = getelementptr inbounds nuw %"class.ncnn::Mat", ptr %68, i32 0, i32 2
  store i64 0, ptr %100, align 8
  %101 = getelementptr inbounds nuw %"class.ncnn::Mat", ptr %68, i32 0, i32 3
  store i32 0, ptr %101, align 8
  %102 = getelementptr inbounds nuw %"class.ncnn::Mat", ptr %68, i32 0, i32 5
  store i32 0, ptr %102, align 8
  %103 = getelementptr inbounds nuw %"class.ncnn::Mat", ptr %68, i32 0, i32 6
  store i32 0, ptr %103, align 4
  %104 = getelementptr inbounds nuw %"class.ncnn::Mat", ptr %68, i32 0, i32 7
  store i32 0, ptr %104, align 8
  %105 = getelementptr inbounds nuw %"class.ncnn::Mat", ptr %68, i32 0, i32 8
  store i32 0, ptr %105, align 4
  %106 = getelementptr inbounds nuw %"class.ncnn::Mat", ptr %68, i32 0, i32 9
  store i32 0, ptr %106, align 8
  %107 = getelementptr inbounds nuw %"class.ncnn::Mat", ptr %68, i32 0, i32 10
  store i64 0, ptr %107, align 8
  %108 = getelementptr inbounds nuw %"class.ncnn::Mat", ptr %68, i32 0, i32 1
  store ptr null, ptr %108, align 8
  br label %112

109:                                              ; preds = %83
  %110 = landingpad { ptr, i32 }
          catch ptr null
  %111 = extractvalue { ptr, i32 } %110, 0
  call void @__clang_call_terminate(ptr %111) #14
  unreachable

112:                                              ; preds = %99
  %113 = getelementptr inbounds nuw %"class.ncnn::DeformableConv2D", ptr %18, i32 0, i32 15
  store ptr %113, ptr %14, align 8
  %114 = load ptr, ptr %14, align 8
  store ptr %114, ptr %11, align 8
  %115 = load ptr, ptr %11, align 8
  %116 = getelementptr inbounds nuw %"class.ncnn::Mat", ptr %115, i32 0, i32 1
  %117 = load ptr, ptr %116, align 8
  %118 = icmp ne ptr %117, null
  br i1 %118, label %119, label %146

119:                                              ; preds = %112
  %120 = getelementptr inbounds nuw %"class.ncnn::Mat", ptr %115, i32 0, i32 1
  %121 = load ptr, ptr %120, align 8
  store i32 -1, ptr %12, align 4
  %122 = load i32, ptr %12, align 4
  %123 = atomicrmw add ptr %121, i32 %122 acq_rel, align 4
  store i32 %123, ptr %13, align 4
  %124 = load i32, ptr %13, align 4
  %125 = icmp eq i32 %124, 1
  br i1 %125, label %126, label %146

126:                                              ; preds = %119
  %127 = getelementptr inbounds nuw %"class.ncnn::Mat", ptr %115, i32 0, i32 4
  %128 = load ptr, ptr %127, align 8
  %129 = icmp ne ptr %128, null
  br i1 %129, label %130, label %138

130:                                              ; preds = %126
  %131 = getelementptr inbounds nuw %"class.ncnn::Mat", ptr %115, i32 0, i32 4
  %132 = load ptr, ptr %131, align 8
  %133 = load ptr, ptr %115, align 8
  %134 = load ptr, ptr %132, align 8
  %135 = getelementptr inbounds ptr, ptr %134, i64 3
  %136 = load ptr, ptr %135, align 8
  invoke void %136(ptr noundef nonnull align 8 dereferenceable(8) %132, ptr noundef %133)
          to label %137 unwind label %156

137:                                              ; preds = %130
  br label %145

138:                                              ; preds = %126
  %139 = load ptr, ptr %115, align 8
  store ptr %139, ptr %2, align 8
  %140 = load ptr, ptr %2, align 8
  %141 = icmp ne ptr %140, null
  br i1 %141, label %142, label %144

142:                                              ; preds = %138
  %143 = load ptr, ptr %2, align 8
  call void @free(ptr noundef %143) #13
  br label %144

144:                                              ; preds = %142, %138
  br label %145

145:                                              ; preds = %144, %137
  br label %146

146:                                              ; preds = %145, %119, %112
  store ptr null, ptr %115, align 8
  %147 = getelementptr inbounds nuw %"class.ncnn::Mat", ptr %115, i32 0, i32 2
  store i64 0, ptr %147, align 8
  %148 = getelementptr inbounds nuw %"class.ncnn::Mat", ptr %115, i32 0, i32 3
  store i32 0, ptr %148, align 8
  %149 = getelementptr inbounds nuw %"class.ncnn::Mat", ptr %115, i32 0, i32 5
  store i32 0, ptr %149, align 8
  %150 = getelementptr inbounds nuw %"class.ncnn::Mat", ptr %115, i32 0, i32 6
  store i32 0, ptr %150, align 4
  %151 = getelementptr inbounds nuw %"class.ncnn::Mat", ptr %115, i32 0, i32 7
  store i32 0, ptr %151, align 8
  %152 = getelementptr inbounds nuw %"class.ncnn::Mat", ptr %115, i32 0, i32 8
  store i32 0, ptr %152, align 4
  %153 = getelementptr inbounds nuw %"class.ncnn::Mat", ptr %115, i32 0, i32 9
  store i32 0, ptr %153, align 8
  %154 = getelementptr inbounds nuw %"class.ncnn::Mat", ptr %115, i32 0, i32 10
  store i64 0, ptr %154, align 8
  %155 = getelementptr inbounds nuw %"class.ncnn::Mat", ptr %115, i32 0, i32 1
  store ptr null, ptr %155, align 8
  br label %159

156:                                              ; preds = %130
  %157 = landingpad { ptr, i32 }
          catch ptr null
  %158 = extractvalue { ptr, i32 } %157, 0
  call void @__clang_call_terminate(ptr %158) #14
  unreachable

159:                                              ; preds = %146
  call void @_ZN4ncnn5LayerD2Ev(ptr noundef nonnull align 8 dereferenceable(208) %18) #13
  ret void
}

; Function Attrs: mustprogress uwtable
define hidden void @_ZN4ncnn24DeformableConv2D_x86_fmaC2Ev(ptr noundef nonnull align 8 dereferenceable(568) %0) unnamed_addr #0 align 2 personality ptr @__gxx_personality_v0 {
  %2 = alloca ptr, align 8
  %3 = alloca ptr, align 8
  %4 = alloca ptr, align 8
  %5 = alloca i32, align 4
  store ptr %0, ptr %3, align 8
  %6 = load ptr, ptr %3, align 8
  call void @_ZN4ncnn16DeformableConv2DC2Ev(ptr noundef nonnull align 8 dereferenceable(480) %6)
  store ptr getelementptr inbounds inrange(-16, 80) ({ [12 x ptr] }, ptr @_ZTVN4ncnn24DeformableConv2D_x86_fmaE, i32 0, i32 0, i32 2), ptr %6, align 8
  %7 = getelementptr inbounds nuw %"class.ncnn::DeformableConv2D_x86_fma", ptr %6, i32 0, i32 2
  store ptr %7, ptr %2, align 8
  %8 = load ptr, ptr %2, align 8
  store ptr null, ptr %8, align 8
  %9 = getelementptr inbounds nuw %"class.ncnn::Mat", ptr %8, i32 0, i32 1
  store ptr null, ptr %9, align 8
  %10 = getelementptr inbounds nuw %"class.ncnn::Mat", ptr %8, i32 0, i32 2
  store i64 0, ptr %10, align 8
  %11 = getelementptr inbounds nuw %"class.ncnn::Mat", ptr %8, i32 0, i32 3
  store i32 0, ptr %11, align 8
  %12 = getelementptr inbounds nuw %"class.ncnn::Mat", ptr %8, i32 0, i32 4
  store ptr null, ptr %12, align 8
  %13 = getelementptr inbounds nuw %"class.ncnn::Mat", ptr %8, i32 0, i32 5
  store i32 0, ptr %13, align 8
  %14 = getelementptr inbounds nuw %"class.ncnn::Mat", ptr %8, i32 0, i32 6
  store i32 0, ptr %14, align 4
  %15 = getelementptr inbounds nuw %"class.ncnn::Mat", ptr %8, i32 0, i32 7
  store i32 0, ptr %15, align 8
  %16 = getelementptr inbounds nuw %"class.ncnn::Mat", ptr %8, i32 0, i32 8
  store i32 0, ptr %16, align 4
  %17 = getelementptr inbounds nuw %"class.ncnn::Mat", ptr %8, i32 0, i32 9
  store i32 0, ptr %17, align 8
  %18 = getelementptr inbounds nuw %"class.ncnn::Mat", ptr %8, i32 0, i32 10
  store i64 0, ptr %18, align 8
  br label %19

19:                                               ; preds = %1
  %20 = getelementptr inbounds nuw %"class.ncnn::Layer", ptr %6, i32 0, i32 4
  store i8 1, ptr %20, align 1
  %21 = getelementptr inbounds nuw %"class.ncnn::DeformableConv2D_x86_fma", ptr %6, i32 0, i32 1
  store ptr null, ptr %21, align 8
  %22 = getelementptr inbounds nuw %"class.ncnn::DeformableConv2D_x86_fma", ptr %6, i32 0, i32 3
  store ptr null, ptr %22, align 8
  ret void

23:                                               ; No predecessors!
  %24 = landingpad { ptr, i32 }
          cleanup
  %25 = extractvalue { ptr, i32 } %24, 0
  store ptr %25, ptr %4, align 8
  %26 = extractvalue { ptr, i32 } %24, 1
  store i32 %26, ptr %5, align 4
  call void @_ZN4ncnn16DeformableConv2DD2Ev(ptr noundef nonnull align 8 dereferenceable(480) %6) #13
  br label %27

27:                                               ; preds = %23
  %28 = load ptr, ptr %4, align 8
  %29 = load i32, ptr %5, align 4
  %30 = insertvalue { ptr, i32 } poison, ptr %28, 0
  %31 = insertvalue { ptr, i32 } %30, i32 %29, 1
  resume { ptr, i32 } %31
}